; Function Attrs: mustprogress nofree norecurse nosync nounwind willreturn memory(read, argmem: none, inaccessiblemem: none) uwtable
define ptr @l___private_Lean_Server_GoTo_0__Lean_Server_toJsonGoToKind____x40_Lean_Server_GoTo___hyg_28_(i8 noundef zeroext %0) local_unnamed_addr #2 {
  %switch.selectcmp = icmp eq i8 %0, 1
  %switch.selectcmp4 = icmp eq i8 %0, 0
  %l___private_Lean_Server_GoTo_0__Lean_Server_toJsonGoToKind____x40_Lean_Server_GoTo___hyg_28____closed__2.val = load ptr, ptr @l___private_Lean_Server_GoTo_0__Lean_Server_toJsonGoToKind____x40_Lean_Server_GoTo___hyg_28____closed__2, align 8
  %l___private_Lean_Server_GoTo_0__Lean_Server_toJsonGoToKind____x40_Lean_Server_GoTo___hyg_28____closed__4.val = load ptr, ptr @l___private_Lean_Server_GoTo_0__Lean_Server_toJsonGoToKind____x40_Lean_Server_GoTo___hyg_28____closed__4, align 8
  %l___private_Lean_Server_GoTo_0__Lean_Server_toJsonGoToKind____x40_Lean_Server_GoTo___hyg_28____closed__6.val = load ptr, ptr @l___private_Lean_Server_GoTo_0__Lean_Server_toJsonGoToKind____x40_Lean_Server_GoTo___hyg_28____closed__6, align 8
  %switch.select.val = select i1 %switch.selectcmp, ptr %l___private_Lean_Server_GoTo_0__Lean_Server_toJsonGoToKind____x40_Lean_Server_GoTo___hyg_28____closed__4.val, ptr %l___private_Lean_Server_GoTo_0__Lean_Server_toJsonGoToKind____x40_Lean_Server_GoTo___hyg_28____closed__6.val
  %.0 = select i1 %switch.selectcmp4, ptr %l___private_Lean_Server_GoTo_0__Lean_Server_toJsonGoToKind____x40_Lean_Server_GoTo___hyg_28____closed__2.val, ptr %switch.select.val
  ret ptr %.0
}